; Function Attrs: nounwind uwtable
define void @ctrl_pad_obj_update(ptr noundef %0, ptr nocapture noundef readonly %1) local_unnamed_addr #0 {
  %3 = getelementptr inbounds nuw i8, ptr %1, i64 136
  %4 = load ptr, ptr %3, align 8, !tbaa !16
  %5 = tail call i32 @lv_obj_get_width(ptr noundef %0) #2
  tail call void @lv_spinbox_set_value(ptr noundef %4, i32 noundef %5) #2
  %6 = getelementptr inbounds nuw i8, ptr %1, i64 144
  %7 = load ptr, ptr %6, align 8, !tbaa !17
  %8 = tail call i32 @lv_obj_get_height(ptr noundef %0) #2
  tail call void @lv_spinbox_set_value(ptr noundef %7, i32 noundef %8) #2
  %9 = getelementptr inbounds nuw i8, ptr %1, i64 200
  %10 = load ptr, ptr %9, align 8, !tbaa !18
  %11 = tail call ptr @lv_obj_get_style_prop(ptr noundef %0, i32 noundef 0, i8 noundef zeroext 16) #2
  %12 = ptrtoint ptr %11 to i64
  %.sroa.0.0.extract.trunc.i = trunc i64 %12 to i32
  tail call void @lv_spinbox_set_value(ptr noundef %10, i32 noundef %.sroa.0.0.extract.trunc.i) #2
  %13 = getelementptr inbounds nuw i8, ptr %1, i64 208
  %14 = load ptr, ptr %13, align 8, !tbaa !19
  %15 = tail call ptr @lv_obj_get_style_prop(ptr noundef %0, i32 noundef 0, i8 noundef zeroext 17) #2
  %16 = ptrtoint ptr %15 to i64
  %.sroa.0.0.extract.trunc.i39 = trunc i64 %16 to i32
  tail call void @lv_spinbox_set_value(ptr noundef %14, i32 noundef %.sroa.0.0.extract.trunc.i39) #2
  %17 = getelementptr inbounds nuw i8, ptr %1, i64 216
  %18 = load ptr, ptr %17, align 8, !tbaa !20
  %19 = tail call ptr @lv_obj_get_style_prop(ptr noundef %0, i32 noundef 0, i8 noundef zeroext 18) #2
  %20 = ptrtoint ptr %19 to i64
  %.sroa.0.0.extract.trunc.i40 = trunc i64 %20 to i32
  tail call void @lv_spinbox_set_value(ptr noundef %18, i32 noundef %.sroa.0.0.extract.trunc.i40) #2
  %21 = getelementptr inbounds nuw i8, ptr %1, i64 224
  %22 = load ptr, ptr %21, align 8, !tbaa !21
  %23 = tail call ptr @lv_obj_get_style_prop(ptr noundef %0, i32 noundef 0, i8 noundef zeroext 19) #2
  %24 = ptrtoint ptr %23 to i64
  %.sroa.0.0.extract.trunc.i41 = trunc i64 %24 to i32
  tail call void @lv_spinbox_set_value(ptr noundef %22, i32 noundef %.sroa.0.0.extract.trunc.i41) #2
  %25 = getelementptr inbounds nuw i8, ptr %1, i64 232
  %26 = load ptr, ptr %25, align 8, !tbaa !22
  %27 = tail call ptr @lv_obj_get_style_prop(ptr noundef %0, i32 noundef 0, i8 noundef zeroext 21) #2
  %28 = ptrtoint ptr %27 to i64
  %.sroa.0.0.extract.trunc.i42 = trunc i64 %28 to i32
  tail call void @lv_spinbox_set_value(ptr noundef %26, i32 noundef %.sroa.0.0.extract.trunc.i42) #2
  %29 = getelementptr inbounds nuw i8, ptr %1, i64 240
  %30 = load ptr, ptr %29, align 8, !tbaa !23
  %31 = tail call ptr @lv_obj_get_style_prop(ptr noundef %0, i32 noundef 0, i8 noundef zeroext 20) #2
  %32 = ptrtoint ptr %31 to i64
  %.sroa.0.0.extract.trunc.i43 = trunc i64 %32 to i32
  tail call void @lv_spinbox_set_value(ptr noundef %30, i32 noundef %.sroa.0.0.extract.trunc.i43) #2
  %33 = getelementptr inbounds nuw i8, ptr %1, i64 248
  %34 = load ptr, ptr %33, align 8, !tbaa !24
  %35 = tail call ptr @lv_obj_get_style_prop(ptr noundef %0, i32 noundef 0, i8 noundef zeroext -127) #2
  %36 = ptrtoint ptr %35 to i64
  %37 = trunc i64 %36 to i32
  %38 = and i32 %37, 255
  tail call void @lv_spinbox_set_value(ptr noundef %34, i32 noundef %38) #2
  %39 = getelementptr inbounds nuw i8, ptr %1, i64 80
  %40 = load ptr, ptr %39, align 8, !tbaa !25
  %41 = tail call zeroext i1 @lv_obj_has_flag(ptr noundef %0, i32 noundef 16) #2
  br i1 %41, label %42, label %43

42:                                               ; preds = %2
  tail call void @lv_obj_add_state(ptr noundef %40, i16 noundef zeroext 1) #2
  br label %44

43:                                               ; preds = %2
  tail call void @lv_obj_remove_state(ptr noundef %40, i16 noundef zeroext 1) #2
  br label %44

44:                                               ; preds = %43, %42
  ret void
}